target datalayout = "e-m:e-p270:32:32-p271:32:32-p272:64:64-i64:64-i128:128-f80:128-n8:16:32:64-S128"
target triple = "x86_64-pc-linux-gnu"

%struct.archive_read = type { %struct.archive, ptr, i32, i64, i64, %struct.archive_read_client, [16 x %struct.archive_read_filter_bidder], ptr, i32, i64, i32, i32, [16 x %struct.archive_format_descriptor], ptr, ptr, ptr, %struct.anon }
%struct.archive = type { i32, i32, ptr, i32, ptr, i32, i32, ptr, %struct.archive_string, ptr, i32, i32, ptr, ptr, i64, i64, i64, i8, i64 }
%struct.archive_string = type { ptr, i64, i64 }
%struct.archive_read_client = type { ptr, ptr, ptr, ptr, ptr, ptr, i32, i32, i64, ptr }
%struct.archive_read_filter_bidder = type { ptr, ptr, ptr }
%struct.archive_format_descriptor = type { ptr, ptr, ptr, ptr, ptr, ptr, ptr, ptr, ptr, ptr, ptr }
%struct.anon = type { ptr, ptr, i32, ptr, ptr }
%struct.archive_read_data_node = type { i64, i64, ptr }

@.str.8 = private unnamed_addr constant [11 x i8] c"No memory.\00", align 1
@.str.9 = private unnamed_addr constant [25 x i8] c"Invalid index specified.\00", align 1
@.str.10 = private unnamed_addr constant [31 x i8] c"archive_read_add_callback_data\00", align 1

; Function Attrs: nounwind uwtable
define dso_local i32 @archive_read_add_callback_data(ptr noundef %0, ptr noundef %1, i32 noundef %2) #0 {
  %4 = alloca i32, align 4
  %5 = alloca ptr, align 8
  %6 = alloca ptr, align 8
  %7 = alloca i32, align 4
  %8 = alloca ptr, align 8
  %9 = alloca ptr, align 8
  %10 = alloca i32, align 4
  %11 = alloca i32, align 4
  %12 = alloca i32, align 4
  store ptr %0, ptr %5, align 8, !tbaa !31
  store ptr %1, ptr %6, align 8, !tbaa !37
  store i32 %2, ptr %7, align 4, !tbaa !38
  call void @llvm.lifetime.start.p0(i64 8, ptr %8) #11
  %13 = load ptr, ptr %5, align 8, !tbaa !31
  store ptr %13, ptr %8, align 8, !tbaa !4
  call void @llvm.lifetime.start.p0(i64 8, ptr %9) #11
  call void @llvm.lifetime.start.p0(i64 4, ptr %10) #11
  br label %14

14:                                               ; preds = %3
  call void @llvm.lifetime.start.p0(i64 4, ptr %11) #11
  %15 = load ptr, ptr %5, align 8, !tbaa !31
  %16 = call i32 @__archive_check_magic(ptr noundef %15, i32 noundef 14594245, i32 noundef 1, ptr noundef @.str.10)
  store i32 %16, ptr %11, align 4, !tbaa !38
  %17 = load i32, ptr %11, align 4, !tbaa !38
  %18 = icmp eq i32 %17, -30
  br i1 %18, label %19, label %20

19:                                               ; preds = %14
  store i32 -30, ptr %4, align 4
  store i32 1, ptr %12, align 4
  br label %21

20:                                               ; preds = %14
  store i32 0, ptr %12, align 4
  br label %21

21:                                               ; preds = %20, %19
  call void @llvm.lifetime.end.p0(i64 4, ptr %11) #11
  %22 = load i32, ptr %12, align 4
  switch i32 %22, label %131 [
    i32 0, label %23
  ]

23:                                               ; preds = %21
  br label %24

24:                                               ; preds = %23
  br label %25

25:                                               ; preds = %24
  %26 = load i32, ptr %7, align 4, !tbaa !38
  %27 = load ptr, ptr %8, align 8, !tbaa !4
  %28 = getelementptr inbounds nuw %struct.archive_read, ptr %27, i32 0, i32 5
  %29 = getelementptr inbounds nuw %struct.archive_read_client, ptr %28, i32 0, i32 6
  %30 = load i32, ptr %29, align 8, !tbaa !67
  %31 = icmp ugt i32 %26, %30
  br i1 %31, label %32, label %35

32:                                               ; preds = %25
  %33 = load ptr, ptr %8, align 8, !tbaa !4
  %34 = getelementptr inbounds nuw %struct.archive_read, ptr %33, i32 0, i32 0
  call void (ptr, i32, ptr, ...) @archive_set_error(ptr noundef %34, i32 noundef 22, ptr noundef @.str.9)
  store i32 -30, ptr %4, align 4
  store i32 1, ptr %12, align 4
  br label %131

35:                                               ; preds = %25
  %36 = load ptr, ptr %8, align 8, !tbaa !4
  %37 = getelementptr inbounds nuw %struct.archive_read, ptr %36, i32 0, i32 5
  %38 = getelementptr inbounds nuw %struct.archive_read_client, ptr %37, i32 0, i32 9
  %39 = load ptr, ptr %38, align 8, !tbaa !42
  %40 = load ptr, ptr %8, align 8, !tbaa !4
  %41 = getelementptr inbounds nuw %struct.archive_read, ptr %40, i32 0, i32 5
  %42 = getelementptr inbounds nuw %struct.archive_read_client, ptr %41, i32 0, i32 6
  %43 = load i32, ptr %42, align 8, !tbaa !67
  %44 = add i32 %43, 1
  store i32 %44, ptr %42, align 8, !tbaa !67
  %45 = zext i32 %44 to i64
  %46 = mul i64 24, %45
  %47 = call ptr @realloc(ptr noundef %39, i64 noundef %46) #13
  store ptr %47, ptr %9, align 8, !tbaa !37
  %48 = load ptr, ptr %9, align 8, !tbaa !37
  %49 = icmp eq ptr %48, null
  br i1 %49, label %50, label %53

50:                                               ; preds = %35
  %51 = load ptr, ptr %8, align 8, !tbaa !4
  %52 = getelementptr inbounds nuw %struct.archive_read, ptr %51, i32 0, i32 0
  call void (ptr, i32, ptr, ...) @archive_set_error(ptr noundef %52, i32 noundef 12, ptr noundef @.str.8)
  store i32 -30, ptr %4, align 4
  store i32 1, ptr %12, align 4
  br label %131

53:                                               ; preds = %35
  %54 = load ptr, ptr %9, align 8, !tbaa !37
  %55 = load ptr, ptr %8, align 8, !tbaa !4
  %56 = getelementptr inbounds nuw %struct.archive_read, ptr %55, i32 0, i32 5
  %57 = getelementptr inbounds nuw %struct.archive_read_client, ptr %56, i32 0, i32 9
  store ptr %54, ptr %57, align 8, !tbaa !42
  %58 = load ptr, ptr %8, align 8, !tbaa !4
  %59 = getelementptr inbounds nuw %struct.archive_read, ptr %58, i32 0, i32 5
  %60 = getelementptr inbounds nuw %struct.archive_read_client, ptr %59, i32 0, i32 6
  %61 = load i32, ptr %60, align 8, !tbaa !67
  %62 = sub i32 %61, 1
  store i32 %62, ptr %10, align 4, !tbaa !38
  br label %63

63:                                               ; preds = %102, %53
  %64 = load i32, ptr %10, align 4, !tbaa !38
  %65 = load i32, ptr %7, align 4, !tbaa !38
  %66 = icmp ugt i32 %64, %65
  br i1 %66, label %67, label %105

67:                                               ; preds = %63
  %68 = load ptr, ptr %8, align 8, !tbaa !4
  %69 = getelementptr inbounds nuw %struct.archive_read, ptr %68, i32 0, i32 5
  %70 = getelementptr inbounds nuw %struct.archive_read_client, ptr %69, i32 0, i32 9
  %71 = load ptr, ptr %70, align 8, !tbaa !42
  %72 = load i32, ptr %10, align 4, !tbaa !38
  %73 = sub i32 %72, 1
  %74 = zext i32 %73 to i64
  %75 = getelementptr inbounds nuw %struct.archive_read_data_node, ptr %71, i64 %74
  %76 = getelementptr inbounds nuw %struct.archive_read_data_node, ptr %75, i32 0, i32 2
  %77 = load ptr, ptr %76, align 8, !tbaa !43
  %78 = load ptr, ptr %8, align 8, !tbaa !4
  %79 = getelementptr inbounds nuw %struct.archive_read, ptr %78, i32 0, i32 5
  %80 = getelementptr inbounds nuw %struct.archive_read_client, ptr %79, i32 0, i32 9
  %81 = load ptr, ptr %80, align 8, !tbaa !42
  %82 = load i32, ptr %10, align 4, !tbaa !38
  %83 = zext i32 %82 to i64
  %84 = getelementptr inbounds nuw %struct.archive_read_data_node, ptr %81, i64 %83
  %85 = getelementptr inbounds nuw %struct.archive_read_data_node, ptr %84, i32 0, i32 2
  store ptr %77, ptr %85, align 8, !tbaa !43
  %86 = load ptr, ptr %8, align 8, !tbaa !4
  %87 = getelementptr inbounds nuw %struct.archive_read, ptr %86, i32 0, i32 5
  %88 = getelementptr inbounds nuw %struct.archive_read_client, ptr %87, i32 0, i32 9
  %89 = load ptr, ptr %88, align 8, !tbaa !42
  %90 = load i32, ptr %10, align 4, !tbaa !38
  %91 = zext i32 %90 to i64
  %92 = getelementptr inbounds nuw %struct.archive_read_data_node, ptr %89, i64 %91
  %93 = getelementptr inbounds nuw %struct.archive_read_data_node, ptr %92, i32 0, i32 0
  store i64 -1, ptr %93, align 8, !tbaa !58
  %94 = load ptr, ptr %8, align 8, !tbaa !4
  %95 = getelementptr inbounds nuw %struct.archive_read, ptr %94, i32 0, i32 5
  %96 = getelementptr inbounds nuw %struct.archive_read_client, ptr %95, i32 0, i32 9
  %97 = load ptr, ptr %96, align 8, !tbaa !42
  %98 = load i32, ptr %10, align 4, !tbaa !38
  %99 = zext i32 %98 to i64
  %100 = getelementptr inbounds nuw %struct.archive_read_data_node, ptr %97, i64 %99
  %101 = getelementptr inbounds nuw %struct.archive_read_data_node, ptr %100, i32 0, i32 1
  store i64 -1, ptr %101, align 8, !tbaa !68
  br label %102

102:                                              ; preds = %67
  %103 = load i32, ptr %10, align 4, !tbaa !38
  %104 = add i32 %103, -1
  store i32 %104, ptr %10, align 4, !tbaa !38
  br label %63, !llvm.loop !69

105:                                              ; preds = %63
  %106 = load ptr, ptr %6, align 8, !tbaa !37
  %107 = load ptr, ptr %8, align 8, !tbaa !4
  %108 = getelementptr inbounds nuw %struct.archive_read, ptr %107, i32 0, i32 5
  %109 = getelementptr inbounds nuw %struct.archive_read_client, ptr %108, i32 0, i32 9
  %110 = load ptr, ptr %109, align 8, !tbaa !42
  %111 = load i32, ptr %7, align 4, !tbaa !38
  %112 = zext i32 %111 to i64
  %113 = getelementptr inbounds nuw %struct.archive_read_data_node, ptr %110, i64 %112
  %114 = getelementptr inbounds nuw %struct.archive_read_data_node, ptr %113, i32 0, i32 2
  store ptr %106, ptr %114, align 8, !tbaa !43
  %115 = load ptr, ptr %8, align 8, !tbaa !4
  %116 = getelementptr inbounds nuw %struct.archive_read, ptr %115, i32 0, i32 5
  %117 = getelementptr inbounds nuw %struct.archive_read_client, ptr %116, i32 0, i32 9
  %118 = load ptr, ptr %117, align 8, !tbaa !42
  %119 = load i32, ptr %7, align 4, !tbaa !38
  %120 = zext i32 %119 to i64
  %121 = getelementptr inbounds nuw %struct.archive_read_data_node, ptr %118, i64 %120
  %122 = getelementptr inbounds nuw %struct.archive_read_data_node, ptr %121, i32 0, i32 0
  store i64 -1, ptr %122, align 8, !tbaa !58
  %123 = load ptr, ptr %8, align 8, !tbaa !4
  %124 = getelementptr inbounds nuw %struct.archive_read, ptr %123, i32 0, i32 5
  %125 = getelementptr inbounds nuw %struct.archive_read_client, ptr %124, i32 0, i32 9
  %126 = load ptr, ptr %125, align 8, !tbaa !42
  %127 = load i32, ptr %7, align 4, !tbaa !38
  %128 = zext i32 %127 to i64
  %129 = getelementptr inbounds nuw %struct.archive_read_data_node, ptr %126, i64 %128
  %130 = getelementptr inbounds nuw %struct.archive_read_data_node, ptr %129, i32 0, i32 1
  store i64 -1, ptr %130, align 8, !tbaa !68
  store i32 0, ptr %4, align 4
  store i32 1, ptr %12, align 4
  br label %131

131:                                              ; preds = %105, %50, %32, %21
  call void @llvm.lifetime.end.p0(i64 4, ptr %10) #11
  call void @llvm.lifetime.end.p0(i64 8, ptr %9) #11
  call void @llvm.lifetime.end.p0(i64 8, ptr %8) #11
  %132 = load i32, ptr %4, align 4
  ret i32 %132
}