; Function Attrs: nounwind uwtable
define dso_local range(i32 -30, 1) i32 @archive_read_add_callback_data(ptr noundef %0, ptr noundef %1, i32 noundef %2) local_unnamed_addr #0 {
  %4 = tail call i32 @__archive_check_magic(ptr noundef %0, i32 noundef 14594245, i32 noundef 1, ptr noundef nonnull @.str.10) #15
  %.not = icmp eq i32 %4, -30
  br i1 %.not, label %34, label %5

5:                                                ; preds = %3
  %6 = getelementptr inbounds nuw i8, ptr %0, i64 224
  %7 = load i32, ptr %6, align 8, !tbaa !35
  %8 = icmp ugt i32 %2, %7
  br i1 %8, label %9, label %10

9:                                                ; preds = %5
  tail call void (ptr, i32, ptr, ...) @archive_set_error(ptr noundef nonnull %0, i32 noundef 22, ptr noundef nonnull @.str.9) #15
  br label %34

10:                                               ; preds = %5
  %11 = getelementptr inbounds nuw i8, ptr %0, i64 240
  %12 = load ptr, ptr %11, align 8, !tbaa !36
  %13 = add i32 %7, 1
  store i32 %13, ptr %6, align 8, !tbaa !35
  %14 = zext i32 %13 to i64
  %15 = mul nuw nsw i64 %14, 24
  %16 = tail call ptr @realloc(ptr noundef %12, i64 noundef %15) #16
  %17 = icmp eq ptr %16, null
  br i1 %17, label %18, label %19

18:                                               ; preds = %10
  tail call void (ptr, i32, ptr, ...) @archive_set_error(ptr noundef nonnull %0, i32 noundef 12, ptr noundef nonnull @.str.8) #15
  br label %34

19:                                               ; preds = %10
  store ptr %16, ptr %11, align 8, !tbaa !36
  %20 = load i32, ptr %6, align 8, !tbaa !35
  %.03337 = add i32 %20, -1
  %21 = icmp ugt i32 %.03337, %2
  br i1 %21, label %.lr.ph.preheader, label %._crit_edge

.lr.ph.preheader:                                 ; preds = %19
  %22 = zext i32 %.03337 to i64
  br label %.lr.ph

.lr.ph:                                           ; preds = %.lr.ph.preheader, %.lr.ph
  %indvars.iv = phi i64 [ %22, %.lr.ph.preheader ], [ %indvars.iv.next, %.lr.ph ]
  %.033.in38 = phi i32 [ %20, %.lr.ph.preheader ], [ %30, %.lr.ph ]
  %23 = add i32 %.033.in38, -2
  %24 = zext i32 %23 to i64
  %25 = getelementptr inbounds nuw %struct.archive_read_data_node, ptr %16, i64 %24, i32 2
  %26 = load ptr, ptr %25, align 8, !tbaa !37
  %27 = getelementptr inbounds nuw %struct.archive_read_data_node, ptr %16, i64 %indvars.iv, i32 2
  store ptr %26, ptr %27, align 8, !tbaa !37
  %28 = getelementptr inbounds nuw %struct.archive_read_data_node, ptr %16, i64 %indvars.iv
  %indvars.iv.next = add nsw i64 %indvars.iv, -1
  %indvars = trunc i64 %indvars.iv.next to i32
  %29 = icmp ult i32 %2, %indvars
  %30 = trunc nuw i64 %indvars.iv to i32
  tail call void @llvm.memset.p0.i64(ptr noundef nonnull align 8 dereferenceable(16) %28, i8 -1, i64 16, i1 false)
  br i1 %29, label %.lr.ph, label %._crit_edge, !llvm.loop !82

._crit_edge:                                      ; preds = %.lr.ph, %19
  %31 = zext i32 %2 to i64
  %32 = getelementptr inbounds nuw %struct.archive_read_data_node, ptr %16, i64 %31, i32 2
  store ptr %1, ptr %32, align 8, !tbaa !37
  %33 = getelementptr inbounds nuw %struct.archive_read_data_node, ptr %16, i64 %31
  tail call void @llvm.memset.p0.i64(ptr noundef nonnull align 8 dereferenceable(16) %33, i8 -1, i64 16, i1 false)
  br label %34

34:                                               ; preds = %3, %._crit_edge, %18, %9
  %.1 = phi i32 [ -30, %9 ], [ -30, %18 ], [ 0, %._crit_edge ], [ -30, %3 ]
  ret i32 %.1
}